target datalayout = "e-m:e-p270:32:32-p271:32:32-p272:64:64-i64:64-i128:128-f80:128-n8:16:32:64-S128"
target triple = "x86_64-pc-linux-gnu"

%"class.marisa::Keyset" = type { %"class.marisa::scoped_array", i64, i64, %"class.marisa::scoped_array", i64, i64, %"class.marisa::scoped_array.0", i64, i64, ptr, i64, i64, i64 }
%"class.marisa::scoped_array" = type { ptr }
%"class.marisa::scoped_array.0" = type { ptr }
%"class.marisa::scoped_array.2" = type { ptr }
%"class.marisa::Key" = type { ptr, i32, %"union.marisa::Key::Union" }
%"union.marisa::Key::Union" = type { i32 }
%"class.marisa::scoped_array.1" = type { ptr }

; Function Attrs: mustprogress nounwind uwtable
define linkonce_odr noundef ptr @_ZNK6marisa12scoped_arrayIcE3getEv(ptr noundef nonnull align 8 dereferenceable(8) %0) #1 comdat align 2 {
  %2 = alloca ptr, align 8
  store ptr %0, ptr %2, align 8
  %3 = load ptr, ptr %2, align 8
  %4 = getelementptr inbounds %"class.marisa::scoped_array.2", ptr %3, i32 0, i32 0
  %5 = load ptr, ptr %4, align 8
  ret ptr %5
}

; Function Attrs: mustprogress nounwind uwtable
define linkonce_odr noundef nonnull align 8 dereferenceable(8) ptr @_ZNK6marisa12scoped_arrayINS0_IcEEEixEm(ptr noundef nonnull align 8 dereferenceable(8) %0, i64 noundef %1) #1 comdat align 2 {
  %3 = alloca ptr, align 8
  %4 = alloca i64, align 8
  store ptr %0, ptr %3, align 8
  store i64 %1, ptr %4, align 8
  %5 = load ptr, ptr %3, align 8
  %6 = getelementptr inbounds %"class.marisa::scoped_array", ptr %5, i32 0, i32 0
  %7 = load ptr, ptr %6, align 8
  %8 = load i64, ptr %4, align 8
  %9 = getelementptr inbounds %"class.marisa::scoped_array.2", ptr %7, i64 %8
  ret ptr %9
}

; Function Attrs: mustprogress nounwind uwtable
define linkonce_odr void @_ZN6marisa3Key6set_idEm(ptr noundef nonnull align 8 dereferenceable(16) %0, i64 noundef %1) #1 comdat align 2 {
  %3 = alloca ptr, align 8
  %4 = alloca i64, align 8
  store ptr %0, ptr %3, align 8
  store i64 %1, ptr %4, align 8
  %5 = load ptr, ptr %3, align 8
  %6 = load i64, ptr %4, align 8
  %7 = trunc i64 %6 to i32
  %8 = getelementptr inbounds %"class.marisa::Key", ptr %5, i32 0, i32 2
  store i32 %7, ptr %8, align 4
  ret void
}

; Function Attrs: mustprogress nounwind uwtable
define linkonce_odr noundef i64 @_ZNK6marisa3Key2idEv(ptr noundef nonnull align 8 dereferenceable(16) %0) #1 comdat align 2 {
  %2 = alloca ptr, align 8
  store ptr %0, ptr %2, align 8
  %3 = load ptr, ptr %2, align 8
  %4 = getelementptr inbounds %"class.marisa::Key", ptr %3, i32 0, i32 2
  %5 = load i32, ptr %4, align 4
  %6 = zext i32 %5 to i64
  ret i64 %6
}

; Function Attrs: mustprogress nounwind uwtable
define linkonce_odr void @_ZN6marisa3Key7set_strEPKcm(ptr noundef nonnull align 8 dereferenceable(16) %0, ptr noundef %1, i64 noundef %2) #1 comdat align 2 {
  %4 = alloca ptr, align 8
  %5 = alloca ptr, align 8
  %6 = alloca i64, align 8
  store ptr %0, ptr %4, align 8
  store ptr %1, ptr %5, align 8
  store i64 %2, ptr %6, align 8
  %7 = load ptr, ptr %4, align 8
  %8 = load ptr, ptr %5, align 8
  %9 = getelementptr inbounds %"class.marisa::Key", ptr %7, i32 0, i32 0
  store ptr %8, ptr %9, align 8
  %10 = load i64, ptr %6, align 8
  %11 = trunc i64 %10 to i32
  %12 = getelementptr inbounds %"class.marisa::Key", ptr %7, i32 0, i32 1
  store i32 %11, ptr %12, align 8
  ret void
}

; Function Attrs: mustprogress nounwind uwtable
define linkonce_odr noundef nonnull align 8 dereferenceable(16) ptr @_ZNK6marisa12scoped_arrayINS_3KeyEEixEm(ptr noundef nonnull align 8 dereferenceable(8) %0, i64 noundef %1) #1 comdat align 2 {
  %3 = alloca ptr, align 8
  %4 = alloca i64, align 8
  store ptr %0, ptr %3, align 8
  store i64 %1, ptr %4, align 8
  %5 = load ptr, ptr %3, align 8
  %6 = getelementptr inbounds %"class.marisa::scoped_array.1", ptr %5, i32 0, i32 0
  %7 = load ptr, ptr %6, align 8
  %8 = load i64, ptr %4, align 8
  %9 = getelementptr inbounds %"class.marisa::Key", ptr %7, i64 %8
  ret ptr %9
}

; Function Attrs: mustprogress nounwind uwtable
define linkonce_odr noundef nonnull align 8 dereferenceable(8) ptr @_ZNK6marisa12scoped_arrayINS0_INS_3KeyEEEEixEm(ptr noundef nonnull align 8 dereferenceable(8) %0, i64 noundef %1) #1 comdat align 2 {
  %3 = alloca ptr, align 8
  %4 = alloca i64, align 8
  store ptr %0, ptr %3, align 8
  store i64 %1, ptr %4, align 8
  %5 = load ptr, ptr %3, align 8
  %6 = getelementptr inbounds %"class.marisa::scoped_array.0", ptr %5, i32 0, i32 0
  %7 = load ptr, ptr %6, align 8
  %8 = load i64, ptr %4, align 8
  %9 = getelementptr inbounds %"class.marisa::scoped_array.1", ptr %7, i64 %8
  ret ptr %9
}

; Function Attrs: mustprogress nounwind uwtable
define linkonce_odr noundef signext i8 @_ZNK6marisa3KeyixEm(ptr noundef nonnull align 8 dereferenceable(16) %0, i64 noundef %1) #1 comdat align 2 {
  %3 = alloca ptr, align 8
  %4 = alloca i64, align 8
  store ptr %0, ptr %3, align 8
  store i64 %1, ptr %4, align 8
  %5 = load ptr, ptr %3, align 8
  %6 = getelementptr inbounds %"class.marisa::Key", ptr %5, i32 0, i32 0
  %7 = load ptr, ptr %6, align 8
  %8 = load i64, ptr %4, align 8
  %9 = getelementptr inbounds i8, ptr %7, i64 %8
  %10 = load i8, ptr %9, align 1
  ret i8 %10
}

; Function Attrs: mustprogress uwtable
define noundef ptr @_ZN6marisa6Keyset7reserveEm(ptr noundef nonnull align 8 dereferenceable(104) %0, i64 noundef %1) #0 align 2 {
  %3 = alloca ptr, align 8
  %4 = alloca ptr, align 8
  %5 = alloca i64, align 8
  store ptr %0, ptr %4, align 8
  store i64 %1, ptr %5, align 8
  %6 = load ptr, ptr %4, align 8
  %7 = getelementptr inbounds %"class.marisa::Keyset", ptr %6, i32 0, i32 11
  %8 = load i64, ptr %7, align 8
  %9 = udiv i64 %8, 256
  %10 = getelementptr inbounds %"class.marisa::Keyset", ptr %6, i32 0, i32 7
  %11 = load i64, ptr %10, align 8
  %12 = icmp eq i64 %9, %11
  br i1 %12, label %13, label %14

13:                                               ; preds = %2
  call void @_ZN6marisa6Keyset16append_key_blockEv(ptr noundef nonnull align 8 dereferenceable(104) %6)
  br label %14

14:                                               ; preds = %13, %2
  %15 = load i64, ptr %5, align 8
  %16 = icmp ugt i64 %15, 1024
  br i1 %16, label %17, label %25

17:                                               ; preds = %14
  %18 = load i64, ptr %5, align 8
  call void @_ZN6marisa6Keyset18append_extra_blockEm(ptr noundef nonnull align 8 dereferenceable(104) %6, i64 noundef %18)
  %19 = getelementptr inbounds %"class.marisa::Keyset", ptr %6, i32 0, i32 3
  %20 = getelementptr inbounds %"class.marisa::Keyset", ptr %6, i32 0, i32 4
  %21 = load i64, ptr %20, align 8
  %22 = sub i64 %21, 1
  %23 = call noundef nonnull align 8 dereferenceable(8) ptr @_ZNK6marisa12scoped_arrayINS0_IcEEEixEm(ptr noundef nonnull align 8 dereferenceable(8) %19, i64 noundef %22)
  %24 = call noundef ptr @_ZNK6marisa12scoped_arrayIcE3getEv(ptr noundef nonnull align 8 dereferenceable(8) %23)
  store ptr %24, ptr %3, align 8
  br label %45

25:                                               ; preds = %14
  %26 = load i64, ptr %5, align 8
  %27 = getelementptr inbounds %"class.marisa::Keyset", ptr %6, i32 0, i32 10
  %28 = load i64, ptr %27, align 8
  %29 = icmp ugt i64 %26, %28
  br i1 %29, label %30, label %31

30:                                               ; preds = %25
  call void @_ZN6marisa6Keyset17append_base_blockEv(ptr noundef nonnull align 8 dereferenceable(104) %6)
  br label %31

31:                                               ; preds = %30, %25
  %32 = load i64, ptr %5, align 8
  %33 = getelementptr inbounds %"class.marisa::Keyset", ptr %6, i32 0, i32 9
  %34 = load ptr, ptr %33, align 8
  %35 = getelementptr inbounds i8, ptr %34, i64 %32
  store ptr %35, ptr %33, align 8
  %36 = load i64, ptr %5, align 8
  %37 = getelementptr inbounds %"class.marisa::Keyset", ptr %6, i32 0, i32 10
  %38 = load i64, ptr %37, align 8
  %39 = sub i64 %38, %36
  store i64 %39, ptr %37, align 8
  %40 = getelementptr inbounds %"class.marisa::Keyset", ptr %6, i32 0, i32 9
  %41 = load ptr, ptr %40, align 8
  %42 = load i64, ptr %5, align 8
  %43 = sub i64 0, %42
  %44 = getelementptr inbounds i8, ptr %41, i64 %43
  store ptr %44, ptr %3, align 8
  br label %45

45:                                               ; preds = %31, %17
  %46 = load ptr, ptr %3, align 8
  ret ptr %46
}

; Function Attrs: mustprogress nounwind uwtable
define linkonce_odr noundef i64 @_ZNK6marisa3Key6lengthEv(ptr noundef nonnull align 8 dereferenceable(16) %0) #1 comdat align 2 {
  %2 = alloca ptr, align 8
  store ptr %0, ptr %2, align 8
  %3 = load ptr, ptr %2, align 8
  %4 = getelementptr inbounds %"class.marisa::Key", ptr %3, i32 0, i32 1
  %5 = load i32, ptr %4, align 8
  %6 = zext i32 %5 to i64
  ret i64 %6
}

; Function Attrs: mustprogress uwtable
define void @_ZN6marisa6Keyset9push_backERKNS_3KeyEc(ptr noundef nonnull align 8 dereferenceable(104) %0, ptr noundef nonnull align 8 dereferenceable(16) %1, i8 noundef signext %2) #0 align 2 {
  %4 = alloca ptr, align 8
  %5 = alloca ptr, align 8
  %6 = alloca i8, align 1
  %7 = alloca ptr, align 8
  %8 = alloca i64, align 8
  %9 = alloca ptr, align 8
  store ptr %0, ptr %4, align 8
  store ptr %1, ptr %5, align 8
  store i8 %2, ptr %6, align 1
  %10 = load ptr, ptr %4, align 8
  %11 = getelementptr inbounds %"class.marisa::Keyset", ptr %10, i32 0, i32 11
  %12 = load i64, ptr %11, align 8
  %13 = udiv i64 %12, 256
  %14 = getelementptr inbounds %"class.marisa::Keyset", ptr %10, i32 0, i32 7
  %15 = load i64, ptr %14, align 8
  %16 = icmp eq i64 %13, %15
  br i1 %16, label %17, label %18

17:                                               ; preds = %3
  call void @_ZN6marisa6Keyset16append_key_blockEv(ptr noundef nonnull align 8 dereferenceable(104) %10)
  br label %18

18:                                               ; preds = %17, %3
  %19 = load ptr, ptr %5, align 8
  %20 = call noundef i64 @_ZNK6marisa3Key6lengthEv(ptr noundef nonnull align 8 dereferenceable(16) %19)
  %21 = add i64 %20, 1
  %22 = call noundef ptr @_ZN6marisa6Keyset7reserveEm(ptr noundef nonnull align 8 dereferenceable(104) %10, i64 noundef %21)
  store ptr %22, ptr %7, align 8
  store i64 0, ptr %8, align 8
  br label %23

23:                                               ; preds = %35, %18
  %24 = load i64, ptr %8, align 8
  %25 = load ptr, ptr %5, align 8
  %26 = call noundef i64 @_ZNK6marisa3Key6lengthEv(ptr noundef nonnull align 8 dereferenceable(16) %25)
  %27 = icmp ult i64 %24, %26
  br i1 %27, label %28, label %38

28:                                               ; preds = %23
  %29 = load ptr, ptr %5, align 8
  %30 = load i64, ptr %8, align 8
  %31 = call noundef signext i8 @_ZNK6marisa3KeyixEm(ptr noundef nonnull align 8 dereferenceable(16) %29, i64 noundef %30)
  %32 = load ptr, ptr %7, align 8
  %33 = load i64, ptr %8, align 8
  %34 = getelementptr inbounds i8, ptr %32, i64 %33
  store i8 %31, ptr %34, align 1
  br label %35

35:                                               ; preds = %28
  %36 = load i64, ptr %8, align 8
  %37 = add i64 %36, 1
  store i64 %37, ptr %8, align 8
  br label %23, !llvm.loop !6

38:                                               ; preds = %23
  %39 = load i8, ptr %6, align 1
  %40 = load ptr, ptr %7, align 8
  %41 = load ptr, ptr %5, align 8
  %42 = call noundef i64 @_ZNK6marisa3Key6lengthEv(ptr noundef nonnull align 8 dereferenceable(16) %41)
  %43 = getelementptr inbounds i8, ptr %40, i64 %42
  store i8 %39, ptr %43, align 1
  %44 = getelementptr inbounds %"class.marisa::Keyset", ptr %10, i32 0, i32 6
  %45 = getelementptr inbounds %"class.marisa::Keyset", ptr %10, i32 0, i32 11
  %46 = load i64, ptr %45, align 8
  %47 = udiv i64 %46, 256
  %48 = call noundef nonnull align 8 dereferenceable(8) ptr @_ZNK6marisa12scoped_arrayINS0_INS_3KeyEEEEixEm(ptr noundef nonnull align 8 dereferenceable(8) %44, i64 noundef %47)
  %49 = getelementptr inbounds %"class.marisa::Keyset", ptr %10, i32 0, i32 11
  %50 = load i64, ptr %49, align 8
  %51 = urem i64 %50, 256
  %52 = call noundef nonnull align 8 dereferenceable(16) ptr @_ZNK6marisa12scoped_arrayINS_3KeyEEixEm(ptr noundef nonnull align 8 dereferenceable(8) %48, i64 noundef %51)
  store ptr %52, ptr %9, align 8
  %53 = load ptr, ptr %9, align 8
  %54 = load ptr, ptr %7, align 8
  %55 = load ptr, ptr %5, align 8
  %56 = call noundef i64 @_ZNK6marisa3Key6lengthEv(ptr noundef nonnull align 8 dereferenceable(16) %55)
  call void @_ZN6marisa3Key7set_strEPKcm(ptr noundef nonnull align 8 dereferenceable(16) %53, ptr noundef %54, i64 noundef %56)
  %57 = load ptr, ptr %9, align 8
  %58 = load ptr, ptr %5, align 8
  %59 = call noundef i64 @_ZNK6marisa3Key2idEv(ptr noundef nonnull align 8 dereferenceable(16) %58)
  call void @_ZN6marisa3Key6set_idEm(ptr noundef nonnull align 8 dereferenceable(16) %57, i64 noundef %59)
  %60 = getelementptr inbounds %"class.marisa::Keyset", ptr %10, i32 0, i32 11
  %61 = load i64, ptr %60, align 8
  %62 = add i64 %61, 1
  store i64 %62, ptr %60, align 8
  %63 = load ptr, ptr %9, align 8
  %64 = call noundef i64 @_ZNK6marisa3Key6lengthEv(ptr noundef nonnull align 8 dereferenceable(16) %63)
  %65 = getelementptr inbounds %"class.marisa::Keyset", ptr %10, i32 0, i32 12
  %66 = load i64, ptr %65, align 8
  %67 = add i64 %66, %64
  store i64 %67, ptr %65, align 8
  ret void
}