; Function Attrs: mustprogress uwtable
define void @_ZN6marisa6Keyset9push_backERKNS_3KeyEc(ptr nocapture noundef nonnull align 8 dereferenceable(104) %0, ptr nocapture noundef nonnull readonly align 8 dereferenceable(16) %1, i8 noundef signext %2) local_unnamed_addr #2 align 2 {
  %4 = getelementptr inbounds i8, ptr %0, i64 88
  %5 = load i64, ptr %4, align 8
  %6 = lshr i64 %5, 8
  %7 = getelementptr inbounds i8, ptr %0, i64 56
  %8 = load i64, ptr %7, align 8
  %9 = icmp eq i64 %6, %8
  br i1 %9, label %10, label %11

10:                                               ; preds = %3
  tail call void @_ZN6marisa6Keyset16append_key_blockEv(ptr noundef nonnull align 8 dereferenceable(104) %0)
  %.pre = load i64, ptr %4, align 8
  %.pre20 = load i64, ptr %7, align 8
  %.pre21 = lshr i64 %.pre, 8
  br label %11

11:                                               ; preds = %10, %3
  %.pre-phi = phi i64 [ %.pre21, %10 ], [ %6, %3 ]
  %12 = phi i64 [ %.pre20, %10 ], [ %8, %3 ]
  %13 = getelementptr inbounds i8, ptr %1, i64 8
  %14 = load i32, ptr %13, align 8
  %15 = zext i32 %14 to i64
  %16 = add nuw nsw i64 %15, 1
  %17 = icmp eq i64 %.pre-phi, %12
  br i1 %17, label %18, label %19

18:                                               ; preds = %11
  tail call void @_ZN6marisa6Keyset16append_key_blockEv(ptr noundef nonnull align 8 dereferenceable(104) %0)
  br label %19

19:                                               ; preds = %18, %11
  %20 = icmp ugt i32 %14, 1023
  br i1 %20, label %21, label %29

21:                                               ; preds = %19
  tail call void @_ZN6marisa6Keyset18append_extra_blockEm(ptr noundef nonnull align 8 dereferenceable(104) %0, i64 noundef %16)
  %22 = getelementptr inbounds i8, ptr %0, i64 24
  %23 = getelementptr inbounds i8, ptr %0, i64 32
  %24 = load i64, ptr %23, align 8
  %25 = load ptr, ptr %22, align 8
  %26 = getelementptr %"class.marisa::scoped_array.2", ptr %25, i64 %24
  %27 = getelementptr i8, ptr %26, i64 -8
  %28 = load ptr, ptr %27, align 8
  br label %_ZN6marisa6Keyset7reserveEm.exit

29:                                               ; preds = %19
  %30 = getelementptr inbounds i8, ptr %0, i64 80
  %31 = load i64, ptr %30, align 8
  %.not = icmp ugt i64 %31, %15
  br i1 %.not, label %33, label %32

32:                                               ; preds = %29
  tail call void @_ZN6marisa6Keyset17append_base_blockEv(ptr noundef nonnull align 8 dereferenceable(104) %0)
  %.pre.i = load i64, ptr %30, align 8
  br label %33

33:                                               ; preds = %32, %29
  %34 = phi i64 [ %.pre.i, %32 ], [ %31, %29 ]
  %35 = getelementptr inbounds i8, ptr %0, i64 72
  %36 = load ptr, ptr %35, align 8
  %37 = getelementptr inbounds i8, ptr %36, i64 %16
  store ptr %37, ptr %35, align 8
  %38 = sub i64 %34, %16
  store i64 %38, ptr %30, align 8
  br label %_ZN6marisa6Keyset7reserveEm.exit

_ZN6marisa6Keyset7reserveEm.exit:                 ; preds = %21, %33
  %.0.i = phi ptr [ %28, %21 ], [ %36, %33 ]
  %39 = load i32, ptr %13, align 8
  %.not18 = icmp eq i32 %39, 0
  br i1 %.not18, label %._crit_edge, label %.lr.ph

.lr.ph:                                           ; preds = %_ZN6marisa6Keyset7reserveEm.exit, %.lr.ph
  %.017 = phi i64 [ %44, %.lr.ph ], [ 0, %_ZN6marisa6Keyset7reserveEm.exit ]
  %40 = load ptr, ptr %1, align 8
  %41 = getelementptr inbounds i8, ptr %40, i64 %.017
  %42 = load i8, ptr %41, align 1
  %43 = getelementptr inbounds i8, ptr %.0.i, i64 %.017
  store i8 %42, ptr %43, align 1
  %44 = add nuw nsw i64 %.017, 1
  %45 = load i32, ptr %13, align 8
  %46 = zext i32 %45 to i64
  %47 = icmp ult i64 %44, %46
  br i1 %47, label %.lr.ph, label %._crit_edge, !llvm.loop !6

._crit_edge:                                      ; preds = %.lr.ph, %_ZN6marisa6Keyset7reserveEm.exit
  %.lcssa = phi i64 [ 0, %_ZN6marisa6Keyset7reserveEm.exit ], [ %46, %.lr.ph ]
  %48 = getelementptr inbounds i8, ptr %.0.i, i64 %.lcssa
  store i8 %2, ptr %48, align 1
  %49 = getelementptr inbounds i8, ptr %0, i64 48
  %50 = load i64, ptr %4, align 8
  %51 = lshr i64 %50, 8
  %52 = load ptr, ptr %49, align 8
  %53 = getelementptr inbounds %"class.marisa::scoped_array.1", ptr %52, i64 %51
  %54 = and i64 %50, 255
  %55 = load ptr, ptr %53, align 8
  %56 = getelementptr inbounds %"class.marisa::Key", ptr %55, i64 %54
  %57 = load i32, ptr %13, align 8
  store ptr %.0.i, ptr %56, align 8
  %58 = getelementptr inbounds i8, ptr %56, i64 8
  store i32 %57, ptr %58, align 8
  %59 = getelementptr inbounds i8, ptr %1, i64 12
  %60 = load i32, ptr %59, align 4
  %61 = getelementptr inbounds i8, ptr %56, i64 12
  store i32 %60, ptr %61, align 4
  %62 = load i64, ptr %4, align 8
  %63 = add i64 %62, 1
  store i64 %63, ptr %4, align 8
  %64 = load i32, ptr %58, align 8
  %65 = zext i32 %64 to i64
  %66 = getelementptr inbounds i8, ptr %0, i64 96
  %67 = load i64, ptr %66, align 8
  %68 = add i64 %67, %65
  store i64 %68, ptr %66, align 8
  ret void
}